target datalayout = "e-m:e-p270:32:32-p271:32:32-p272:64:64-i64:64-i128:128-f80:128-n8:16:32:64-S128"
target triple = "x86_64-pc-linux-gnu"

%struct.Cnf_Cut_t_ = type { i8, i8, i16, [2 x ptr], [0 x i32] }

; Function Attrs: nounwind uwtable
define void @Cnf_CutRemoveIthVar(ptr noundef %0, i32 noundef %1, i32 noundef %2) #0 {
  %4 = alloca ptr, align 8
  %5 = alloca i32, align 4
  %6 = alloca i32, align 4
  %7 = alloca i32, align 4
  store ptr %0, ptr %4, align 8, !tbaa !18
  store i32 %1, ptr %5, align 4, !tbaa !8
  store i32 %2, ptr %6, align 4, !tbaa !8
  call void @llvm.lifetime.start.p0(i64 4, ptr %7) #7
  %8 = load ptr, ptr %4, align 8, !tbaa !18
  %9 = getelementptr inbounds nuw %struct.Cnf_Cut_t_, ptr %8, i32 0, i32 0
  %10 = load i8, ptr %9, align 8, !tbaa !20
  %11 = add i8 %10, -1
  store i8 %11, ptr %9, align 8, !tbaa !20
  %12 = load i32, ptr %5, align 4, !tbaa !8
  store i32 %12, ptr %7, align 4, !tbaa !8
  br label %13

13:                                               ; preds = %33, %3
  %14 = load i32, ptr %7, align 4, !tbaa !8
  %15 = load ptr, ptr %4, align 8, !tbaa !18
  %16 = getelementptr inbounds nuw %struct.Cnf_Cut_t_, ptr %15, i32 0, i32 0
  %17 = load i8, ptr %16, align 8, !tbaa !20
  %18 = sext i8 %17 to i32
  %19 = icmp slt i32 %14, %18
  br i1 %19, label %20, label %36

20:                                               ; preds = %13
  %21 = load ptr, ptr %4, align 8, !tbaa !18
  %22 = getelementptr inbounds nuw %struct.Cnf_Cut_t_, ptr %21, i32 0, i32 4
  %23 = load i32, ptr %7, align 4, !tbaa !8
  %24 = add nsw i32 %23, 1
  %25 = sext i32 %24 to i64
  %26 = getelementptr inbounds [0 x i32], ptr %22, i64 0, i64 %25
  %27 = load i32, ptr %26, align 4, !tbaa !8
  %28 = load ptr, ptr %4, align 8, !tbaa !18
  %29 = getelementptr inbounds nuw %struct.Cnf_Cut_t_, ptr %28, i32 0, i32 4
  %30 = load i32, ptr %7, align 4, !tbaa !8
  %31 = sext i32 %30 to i64
  %32 = getelementptr inbounds [0 x i32], ptr %29, i64 0, i64 %31
  store i32 %27, ptr %32, align 4, !tbaa !8
  br label %33

33:                                               ; preds = %20
  %34 = load i32, ptr %7, align 4, !tbaa !8
  %35 = add nsw i32 %34, 1
  store i32 %35, ptr %7, align 4, !tbaa !8
  br label %13, !llvm.loop !51

36:                                               ; preds = %13
  call void @llvm.lifetime.end.p0(i64 4, ptr %7) #7
  ret void
}