; Function Attrs: nofree norecurse nosync nounwind memory(argmem: readwrite) uwtable
define void @Cnf_CutRemoveIthVar(ptr noundef captures(none) %0, i32 noundef %1, i32 noundef %2) local_unnamed_addr #7 {
  %4 = load i8, ptr %0, align 8, !tbaa !15
  %5 = add i8 %4, -1
  store i8 %5, ptr %0, align 8, !tbaa !15
  %6 = sext i8 %5 to i32
  %7 = icmp slt i32 %1, %6
  br i1 %7, label %.lr.ph, label %._crit_edge

.lr.ph:                                           ; preds = %3
  %8 = getelementptr inbounds nuw i8, ptr %0, i64 24
  %9 = sext i32 %1 to i64
  %wide.trip.count = sext i8 %5 to i64
  br label %10

10:                                               ; preds = %.lr.ph, %10
  %indvars.iv = phi i64 [ %9, %.lr.ph ], [ %indvars.iv.next, %10 ]
  %indvars.iv.next = add nsw i64 %indvars.iv, 1
  %11 = getelementptr inbounds [0 x i32], ptr %8, i64 0, i64 %indvars.iv.next
  %12 = load i32, ptr %11, align 4, !tbaa !26
  %13 = getelementptr inbounds [0 x i32], ptr %8, i64 0, i64 %indvars.iv
  store i32 %12, ptr %13, align 4, !tbaa !26
  %exitcond.not = icmp eq i64 %indvars.iv.next, %wide.trip.count
  br i1 %exitcond.not, label %._crit_edge, label %10, !llvm.loop !45

._crit_edge:                                      ; preds = %10, %3
  ret void
}